; Function Attrs: nounwind uwtable
define dso_local i64 @varcharrecv(ptr noundef readonly captures(none) %0) local_unnamed_addr #0 {
  %2 = alloca i32, align 4
  %3 = getelementptr inbounds nuw i8, ptr %0, i64 32
  %4 = load i64, ptr %3, align 8
  %5 = inttoptr i64 %4 to ptr
  %6 = getelementptr inbounds nuw i8, ptr %0, i64 64
  %7 = load i64, ptr %6, align 8
  %8 = trunc i64 %7 to i32
  call void @llvm.lifetime.start.p0(i64 4, ptr nonnull %2) #13
  %9 = getelementptr inbounds nuw i8, ptr %5, i64 8
  %10 = load i32, ptr %9, align 8
  %11 = getelementptr inbounds nuw i8, ptr %5, i64 16
  %12 = load i32, ptr %11, align 8
  %13 = sub i32 %10, %12
  %14 = call ptr @pq_getmsgtext(ptr noundef %5, i32 noundef %13, ptr noundef nonnull %2) #13
  %15 = load i32, ptr %2, align 4
  %16 = sext i32 %15 to i64
  %17 = call fastcc ptr @varchar_input(ptr noundef %14, i64 noundef %16, i32 noundef %8, ptr noundef null)
  call void @pfree(ptr noundef %14) #13
  %18 = ptrtoint ptr %17 to i64
  call void @llvm.lifetime.end.p0(i64 4, ptr nonnull %2) #13
  ret i64 %18
}